; Function Attrs: mustprogress norecurse uwtable
define noundef i32 @main(i32 noundef %0, ptr nocapture noundef readonly %1) local_unnamed_addr #3 personality ptr @__gxx_personality_v0 {
  %3 = alloca %class.htif_hexwriter_t, align 8
  %4 = alloca %class.memif_t, align 8
  %5 = alloca i64, align 8
  %6 = alloca %"class.std::map.0", align 8
  %7 = add i32 %0, -6
  %or.cond = icmp ult i32 %7, -2
  br i1 %or.cond, label %8, label %13

8:                                                ; preds = %2
  %9 = tail call noundef nonnull align 8 dereferenceable(8) ptr @_ZStlsISt11char_traitsIcEERSt13basic_ostreamIcT_ES5_PKc(ptr noundef nonnull align 8 dereferenceable(8) @_ZSt4cerr, ptr noundef nonnull @.str)
  %10 = load ptr, ptr %1, align 8
  %11 = tail call noundef nonnull align 8 dereferenceable(8) ptr @_ZStlsISt11char_traitsIcEERSt13basic_ostreamIcT_ES5_PKc(ptr noundef nonnull align 8 dereferenceable(8) %9, ptr noundef %10)
  %12 = tail call noundef nonnull align 8 dereferenceable(8) ptr @_ZStlsISt11char_traitsIcEERSt13basic_ostreamIcT_ES5_PKc(ptr noundef nonnull align 8 dereferenceable(8) %11, ptr noundef nonnull @.str.1)
  br label %_ZN16htif_hexwriter_tD2Ev.exit.sink.split

13:                                               ; preds = %2
  %14 = getelementptr inbounds i8, ptr %1, i64 8
  %15 = load ptr, ptr %14, align 8
  %16 = tail call i32 @atoi(ptr nocapture noundef %15) #12
  %17 = icmp eq i32 %16, 0
  br i1 %17, label %21, label %18

18:                                               ; preds = %13
  %19 = add i32 %16, -1
  %20 = tail call i32 @llvm.ctpop.i32(i32 %16), !range !4
  %.not = icmp ult i32 %20, 2
  br i1 %.not, label %23, label %21

21:                                               ; preds = %18, %13
  %22 = tail call noundef nonnull align 8 dereferenceable(8) ptr @_ZStlsISt11char_traitsIcEERSt13basic_ostreamIcT_ES5_PKc(ptr noundef nonnull align 8 dereferenceable(8) @_ZSt4cerr, ptr noundef nonnull @.str.2)
  br label %_ZN16htif_hexwriter_tD2Ev.exit.sink.split

23:                                               ; preds = %18
  %24 = icmp eq i32 %0, 5
  br i1 %24, label %25, label %33

25:                                               ; preds = %23
  %26 = getelementptr inbounds i8, ptr %1, i64 32
  %27 = load ptr, ptr %26, align 8
  %28 = tail call i64 @atoll(ptr nocapture noundef %27) #12
  %29 = zext i32 %19 to i64
  %30 = and i64 %28, %29
  %.not26 = icmp eq i64 %30, 0
  br i1 %.not26, label %33, label %31

31:                                               ; preds = %25
  %32 = tail call noundef nonnull align 8 dereferenceable(8) ptr @_ZStlsISt11char_traitsIcEERSt13basic_ostreamIcT_ES5_PKc(ptr noundef nonnull align 8 dereferenceable(8) @_ZSt4cerr, ptr noundef nonnull @.str.3)
  br label %_ZN16htif_hexwriter_tD2Ev.exit.sink.split

33:                                               ; preds = %25, %23
  %.022 = phi i64 [ %28, %25 ], [ 0, %23 ]
  %34 = getelementptr inbounds i8, ptr %1, i64 16
  %35 = load ptr, ptr %34, align 8
  %36 = tail call i32 @atoi(ptr nocapture noundef %35) #12
  %37 = tail call i32 @llvm.ctpop.i32(i32 %36), !range !4
  %or.cond28 = icmp eq i32 %37, 1
  br i1 %or.cond28, label %40, label %38

38:                                               ; preds = %33
  %39 = tail call noundef nonnull align 8 dereferenceable(8) ptr @_ZStlsISt11char_traitsIcEERSt13basic_ostreamIcT_ES5_PKc(ptr noundef nonnull align 8 dereferenceable(8) @_ZSt4cerr, ptr noundef nonnull @.str.4)
  br label %_ZN16htif_hexwriter_tD2Ev.exit.sink.split

40:                                               ; preds = %33
  %41 = zext i32 %16 to i64
  %42 = zext i32 %36 to i64
  call void @_ZN16htif_hexwriter_tC1Emmm(ptr noundef nonnull align 8 dereferenceable(80) %3, i64 noundef %.022, i64 noundef %41, i64 noundef %42)
  store ptr getelementptr inbounds ({ [23 x ptr] }, ptr @_ZTV7memif_t, i64 0, i32 0, i64 2), ptr %4, align 8
  %43 = getelementptr inbounds i8, ptr %4, i64 8
  store ptr %3, ptr %43, align 8
  %44 = getelementptr inbounds i8, ptr %1, i64 24
  %45 = load ptr, ptr %44, align 8
  invoke void @_Z8load_elfB5cxx11PKcP7memif_tPmj(ptr dead_on_unwind nonnull writable sret(%"class.std::map.0") align 8 %6, ptr noundef %45, ptr noundef nonnull %4, ptr noundef nonnull %5, i32 noundef 0)
          to label %46 unwind label %60

46:                                               ; preds = %40
  %47 = getelementptr inbounds i8, ptr %6, i64 16
  %48 = load ptr, ptr %47, align 8
  invoke void @_ZNSt8_Rb_treeINSt7__cxx1112basic_stringIcSt11char_traitsIcESaIcEEESt4pairIKS5_mESt10_Select1stIS8_ESt4lessIS5_ESaIS8_EE8_M_eraseEPSt13_Rb_tree_nodeIS8_E(ptr noundef nonnull align 8 dereferenceable(48) %6, ptr noundef %48)
          to label %_ZNSt3mapINSt7__cxx1112basic_stringIcSt11char_traitsIcESaIcEEEmSt4lessIS5_ESaISt4pairIKS5_mEEED2Ev.exit unwind label %49

49:                                               ; preds = %46
  %50 = landingpad { ptr, i32 }
          catch ptr null
  %51 = extractvalue { ptr, i32 } %50, 0
  call void @__clang_call_terminate(ptr %51) #13
  unreachable

_ZNSt3mapINSt7__cxx1112basic_stringIcSt11char_traitsIcESaIcEEEmSt4lessIS5_ESaISt4pairIKS5_mEEED2Ev.exit: ; preds = %46
  %52 = invoke noundef nonnull align 8 dereferenceable(8) ptr @_ZlsRSoRK16htif_hexwriter_t(ptr noundef nonnull align 8 dereferenceable(8) @_ZSt4cout, ptr noundef nonnull align 8 dereferenceable(80) %3)
          to label %53 unwind label %60

53:                                               ; preds = %_ZNSt3mapINSt7__cxx1112basic_stringIcSt11char_traitsIcESaIcEEEmSt4lessIS5_ESaISt4pairIKS5_mEEED2Ev.exit
  store ptr getelementptr inbounds ({ [10 x ptr] }, ptr @_ZTV16htif_hexwriter_t, i64 0, i32 0, i64 2), ptr %3, align 8
  %54 = getelementptr inbounds i8, ptr %3, i64 32
  %55 = getelementptr inbounds i8, ptr %3, i64 48
  %56 = load ptr, ptr %55, align 8
  invoke void @_ZNSt8_Rb_treeImSt4pairIKmSt6vectorIcSaIcEEESt10_Select1stIS5_ESt4lessImESaIS5_EE8_M_eraseEPSt13_Rb_tree_nodeIS5_E(ptr noundef nonnull align 8 dereferenceable(48) %54, ptr noundef %56)
          to label %_ZN16htif_hexwriter_tD2Ev.exit unwind label %57

57:                                               ; preds = %53
  %58 = landingpad { ptr, i32 }
          catch ptr null
  %59 = extractvalue { ptr, i32 } %58, 0
  call void @__clang_call_terminate(ptr %59) #13
  unreachable

60:                                               ; preds = %_ZNSt3mapINSt7__cxx1112basic_stringIcSt11char_traitsIcESaIcEEEmSt4lessIS5_ESaISt4pairIKS5_mEEED2Ev.exit, %40
  %61 = landingpad { ptr, i32 }
          cleanup
  call void @_ZN16htif_hexwriter_tD2Ev(ptr noundef nonnull align 8 dereferenceable(80) %3) #14
  resume { ptr, i32 } %61

_ZN16htif_hexwriter_tD2Ev.exit.sink.split:        ; preds = %8, %21, %31, %38
  %.sink = phi ptr [ %39, %38 ], [ %32, %31 ], [ %22, %21 ], [ %12, %8 ]
  %62 = tail call noundef nonnull align 8 dereferenceable(8) ptr @_ZNSolsEPFRSoS_E(ptr noundef nonnull align 8 dereferenceable(8) %.sink, ptr noundef nonnull @_ZSt4endlIcSt11char_traitsIcEERSt13basic_ostreamIT_T0_ES6_)
  br label %_ZN16htif_hexwriter_tD2Ev.exit

_ZN16htif_hexwriter_tD2Ev.exit:                   ; preds = %_ZN16htif_hexwriter_tD2Ev.exit.sink.split, %53
  %.0 = phi i32 [ 0, %53 ], [ 1, %_ZN16htif_hexwriter_tD2Ev.exit.sink.split ]
  ret i32 %.0
}